; Function Attrs: nounwind uwtable
define dso_local ptr @_PyCompile_GetUnaryIntrinsicName(i32 noundef %0) local_unnamed_addr #0 {
  %or.cond = icmp ugt i32 %0, 11
  br i1 %or.cond, label %7, label %2

2:                                                ; preds = %1
  %3 = zext nneg i32 %0 to i64
  %4 = getelementptr [12 x %struct.intrinsic_func1_info], ptr @_PyIntrinsics_UnaryFunctions, i64 0, i64 %3, i32 1
  %5 = load ptr, ptr %4, align 8, !tbaa !41
  %6 = tail call ptr @PyUnicode_FromString(ptr noundef %5) #4
  br label %7

7:                                                ; preds = %1, %2
  %.0 = phi ptr [ %6, %2 ], [ null, %1 ]
  ret ptr %.0
}